target datalayout = "e-m:e-p270:32:32-p271:32:32-p272:64:64-i64:64-i128:128-f80:128-n8:16:32:64-S128"
target triple = "x86_64-pc-linux-gnu"

%"class.duckdb::vector.15" = type { %"class.std::vector.16" }
%"class.std::vector.16" = type { %"struct.std::_Vector_base.17" }
%"struct.std::_Vector_base.17" = type { %"struct.std::_Vector_base<std::__cxx11::basic_string<char>, std::allocator<std::__cxx11::basic_string<char>>>::_Vector_impl" }
%"struct.std::_Vector_base<std::__cxx11::basic_string<char>, std::allocator<std::__cxx11::basic_string<char>>>::_Vector_impl" = type { %"struct.std::_Vector_base<std::__cxx11::basic_string<char>, std::allocator<std::__cxx11::basic_string<char>>>::_Vector_impl_data" }
%"struct.std::_Vector_base<std::__cxx11::basic_string<char>, std::allocator<std::__cxx11::basic_string<char>>>::_Vector_impl_data" = type { ptr, ptr, ptr }
%"class.duckdb::ColumnWriterState" = type { ptr, %"class.duckdb::vector", %"class.duckdb::vector", %"class.duckdb::vector.0", i64, i64 }
%"class.duckdb::vector" = type { %"class.std::vector" }
%"class.std::vector" = type { %"struct.std::_Vector_base" }
%"struct.std::_Vector_base" = type { %"struct.std::_Vector_base<unsigned short, std::allocator<unsigned short>>::_Vector_impl" }
%"struct.std::_Vector_base<unsigned short, std::allocator<unsigned short>>::_Vector_impl" = type { %"struct.std::_Vector_base<unsigned short, std::allocator<unsigned short>>::_Vector_impl_data" }
%"struct.std::_Vector_base<unsigned short, std::allocator<unsigned short>>::_Vector_impl_data" = type { ptr, ptr, ptr }
%"class.duckdb::vector.0" = type { %"class.std::vector.1" }
%"class.std::vector.1" = type { %"struct.std::_Bvector_base" }
%"struct.std::_Bvector_base" = type { %"struct.std::_Bvector_base<std::allocator<bool>>::_Bvector_impl" }
%"struct.std::_Bvector_base<std::allocator<bool>>::_Bvector_impl" = type { %"struct.std::_Bvector_base<std::allocator<bool>>::_Bvector_impl_data" }
%"struct.std::_Bvector_base<std::allocator<bool>>::_Bvector_impl_data" = type { %"struct.std::_Bit_iterator", %"struct.std::_Bit_iterator", ptr }
%"struct.std::_Bit_iterator" = type { %"struct.std::_Bit_iterator_base.base", [4 x i8] }
%"struct.std::_Bit_iterator_base.base" = type <{ ptr, i32 }>
%"class.duckdb::ColumnWriter" = type <{ ptr, ptr, i64, %"class.duckdb::vector.15", i64, i64, i8, [7 x i8] }>
%"class.duckdb::unique_ptr.30" = type { %"class.std::unique_ptr.31" }
%"class.std::unique_ptr.31" = type { %"struct.std::__uniq_ptr_data.32" }
%"struct.std::__uniq_ptr_data.32" = type { %"class.std::__uniq_ptr_impl.33" }
%"class.std::__uniq_ptr_impl.33" = type { %"class.std::tuple.34" }
%"class.std::tuple.34" = type { %"struct.std::_Tuple_impl.35" }
%"struct.std::_Tuple_impl.35" = type { %"struct.std::_Head_base.38" }
%"struct.std::_Head_base.38" = type { ptr }
%"class.duckdb::unique_ptr.48" = type { %"class.std::unique_ptr.49" }
%"class.std::unique_ptr.49" = type { %"struct.std::__uniq_ptr_data.50" }
%"struct.std::__uniq_ptr_data.50" = type { %"class.std::__uniq_ptr_impl.51" }
%"class.std::__uniq_ptr_impl.51" = type { %"class.std::tuple.52" }
%"class.std::tuple.52" = type { %"struct.std::_Tuple_impl.53" }
%"struct.std::_Tuple_impl.53" = type { %"struct.std::_Head_base.56" }
%"struct.std::_Head_base.56" = type { ptr }
%"class.std::__cxx11::basic_string" = type { %"struct.std::__cxx11::basic_string<char>::_Alloc_hider", i64, %union.anon }
%"struct.std::__cxx11::basic_string<char>::_Alloc_hider" = type { ptr }
%union.anon = type { i64, [8 x i8] }
%"class.duckdb::unique_ptr.177" = type { %"class.std::unique_ptr.178" }
%"class.std::unique_ptr.178" = type { %"struct.std::__uniq_ptr_data.179" }
%"struct.std::__uniq_ptr_data.179" = type { %"class.std::__uniq_ptr_impl.180" }
%"class.std::__uniq_ptr_impl.180" = type { %"class.std::tuple.181" }
%"class.std::tuple.181" = type { %"struct.std::_Tuple_impl.182" }
%"struct.std::_Tuple_impl.182" = type { %"struct.std::_Head_base.185" }
%"struct.std::_Head_base.185" = type { ptr }
%"class.duckdb_apache::thrift::TBase" = type { ptr }
%"struct.duckdb::PageWriteInformation" = type { %"class.duckdb_parquet::PageHeader", %"class.duckdb::unique_ptr.177", %"class.duckdb::unique_ptr.48", i64, i64, i64, i64, ptr, %"class.duckdb::AllocatedData" }
%"class.duckdb_parquet::PageHeader" = type <{ %"class.duckdb_apache::thrift::TBase", i32, i32, i32, i32, %"class.duckdb_parquet::DataPageHeader", %"class.duckdb_parquet::IndexPageHeader", %"class.duckdb_parquet::DictionaryPageHeader", %"class.duckdb_parquet::DataPageHeaderV2", %"struct.duckdb_parquet::_PageHeader__isset", [7 x i8] }>
%"class.duckdb_parquet::DataPageHeader" = type <{ %"class.duckdb_apache::thrift::TBase", i32, i32, i32, i32, %"class.duckdb_parquet::Statistics", %"struct.duckdb_parquet::_DataPageHeader__isset", [7 x i8] }>
%"class.duckdb_parquet::Statistics" = type <{ %"class.duckdb_apache::thrift::TBase", %"class.std::__cxx11::basic_string", %"class.std::__cxx11::basic_string", i64, i64, %"class.std::__cxx11::basic_string", %"class.std::__cxx11::basic_string", i8, i8, %"struct.duckdb_parquet::_Statistics__isset", [5 x i8] }>
%"struct.duckdb_parquet::_Statistics__isset" = type { i8 }
%"struct.duckdb_parquet::_DataPageHeader__isset" = type { i8 }
%"class.duckdb_parquet::IndexPageHeader" = type { %"class.duckdb_apache::thrift::TBase" }
%"class.duckdb_parquet::DictionaryPageHeader" = type <{ %"class.duckdb_apache::thrift::TBase", i32, i32, i8, %"struct.duckdb_parquet::_DictionaryPageHeader__isset", [6 x i8] }>
%"struct.duckdb_parquet::_DictionaryPageHeader__isset" = type { i8 }
%"class.duckdb_parquet::DataPageHeaderV2" = type <{ %"class.duckdb_apache::thrift::TBase", i32, i32, i32, i32, i32, i32, i8, [7 x i8], %"class.duckdb_parquet::Statistics", %"struct.duckdb_parquet::_DataPageHeaderV2__isset", [7 x i8] }>
%"struct.duckdb_parquet::_DataPageHeaderV2__isset" = type { i8 }
%"struct.duckdb_parquet::_PageHeader__isset" = type { i8 }
%"class.duckdb::AllocatedData" = type { %"class.duckdb::optional_ptr", ptr, i64 }
%"class.duckdb::optional_ptr" = type { ptr }
%"class.duckdb::PrimitiveColumnWriterState" = type { %"class.duckdb::ColumnWriterState", ptr, ptr, i64, %"class.duckdb::vector.270", %"class.duckdb::vector.276", %"class.duckdb::unique_ptr.30", i64, %"class.duckdb::unique_ptr.282" }
%"class.duckdb::vector.270" = type { %"class.std::vector.271" }
%"class.std::vector.271" = type { %"struct.std::_Vector_base.272" }
%"struct.std::_Vector_base.272" = type { %"struct.std::_Vector_base<duckdb::PageInformation, std::allocator<duckdb::PageInformation>>::_Vector_impl" }
%"struct.std::_Vector_base<duckdb::PageInformation, std::allocator<duckdb::PageInformation>>::_Vector_impl" = type { %"struct.std::_Vector_base<duckdb::PageInformation, std::allocator<duckdb::PageInformation>>::_Vector_impl_data" }
%"struct.std::_Vector_base<duckdb::PageInformation, std::allocator<duckdb::PageInformation>>::_Vector_impl_data" = type { ptr, ptr, ptr }
%"class.duckdb::vector.276" = type { %"class.std::vector.277" }
%"class.std::vector.277" = type { %"struct.std::_Vector_base.278" }
%"struct.std::_Vector_base.278" = type { %"struct.std::_Vector_base<duckdb::PageWriteInformation, std::allocator<duckdb::PageWriteInformation>>::_Vector_impl" }
%"struct.std::_Vector_base<duckdb::PageWriteInformation, std::allocator<duckdb::PageWriteInformation>>::_Vector_impl" = type { %"struct.std::_Vector_base<duckdb::PageWriteInformation, std::allocator<duckdb::PageWriteInformation>>::_Vector_impl_data" }
%"struct.std::_Vector_base<duckdb::PageWriteInformation, std::allocator<duckdb::PageWriteInformation>>::_Vector_impl_data" = type { ptr, ptr, ptr }
%"class.duckdb::unique_ptr.282" = type { %"class.std::unique_ptr.283" }
%"class.std::unique_ptr.283" = type { %"struct.std::__uniq_ptr_data.284" }
%"struct.std::__uniq_ptr_data.284" = type { %"class.std::__uniq_ptr_impl.285" }
%"class.std::__uniq_ptr_impl.285" = type { %"class.std::tuple.286" }
%"class.std::tuple.286" = type { %"struct.std::_Tuple_impl.287" }
%"struct.std::_Tuple_impl.287" = type { %"struct.std::_Head_base.290" }
%"struct.std::_Head_base.290" = type { ptr }
%"struct.duckdb::PageInformation" = type { i64, i64, i64, i64 }
%"class.duckdb::optional_idx" = type { i64 }

; Function Attrs: mustprogress nounwind uwtable
define linkonce_odr void @_ZN6duckdb12optional_idxC2Ev(ptr noundef nonnull align 8 dereferenceable(8) %0) unnamed_addr #5 comdat align 2 {
  %2 = alloca ptr, align 8
  store ptr %0, ptr %2, align 8, !tbaa !544
  %3 = load ptr, ptr %2, align 8
  %4 = getelementptr inbounds nuw %"class.duckdb::optional_idx", ptr %3, i32 0, i32 0
  store i64 -1, ptr %4, align 8, !tbaa !546
  ret void
}

; Function Attrs: mustprogress nounwind uwtable
define linkonce_odr noundef i64 @_ZNKSt6vectorIN6duckdb20PageWriteInformationESaIS1_EE4sizeEv(ptr noundef nonnull align 8 dereferenceable(24) %0) #5 comdat align 2 {
  %2 = alloca ptr, align 8
  store ptr %0, ptr %2, align 8, !tbaa !534
  %3 = load ptr, ptr %2, align 8
  %4 = getelementptr inbounds nuw %"struct.std::_Vector_base.278", ptr %3, i32 0, i32 0
  %5 = getelementptr inbounds nuw %"struct.std::_Vector_base<duckdb::PageWriteInformation, std::allocator<duckdb::PageWriteInformation>>::_Vector_impl_data", ptr %4, i32 0, i32 1
  %6 = load ptr, ptr %5, align 8, !tbaa !551
  %7 = getelementptr inbounds nuw %"struct.std::_Vector_base.278", ptr %3, i32 0, i32 0
  %8 = getelementptr inbounds nuw %"struct.std::_Vector_base<duckdb::PageWriteInformation, std::allocator<duckdb::PageWriteInformation>>::_Vector_impl_data", ptr %7, i32 0, i32 0
  %9 = load ptr, ptr %8, align 8, !tbaa !552
  %10 = ptrtoint ptr %6 to i64
  %11 = ptrtoint ptr %9 to i64
  %12 = sub i64 %10, %11
  %13 = sdiv exact i64 %12, 544
  ret i64 %13
}

; Function Attrs: mustprogress uwtable
define void @_ZN6duckdb21PrimitiveColumnWriter8NextPageERNS_26PrimitiveColumnWriterStateE(ptr noundef nonnull align 8 dereferenceable(65) %0, ptr noundef nonnull align 8 dereferenceable(208) %1) #0 align 2 {
  %3 = alloca ptr, align 8
  %4 = alloca ptr, align 8
  %5 = alloca ptr, align 8
  %6 = alloca ptr, align 8
  %7 = alloca ptr, align 8
  %8 = alloca %"class.duckdb::optional_idx", align 8
  %9 = alloca %"class.duckdb::optional_idx", align 8
  store ptr %0, ptr %3, align 8, !tbaa !106
  store ptr %1, ptr %4, align 8, !tbaa !141
  %10 = load ptr, ptr %3, align 8
  %11 = load ptr, ptr %4, align 8, !tbaa !141
  %12 = getelementptr inbounds nuw %"class.duckdb::PrimitiveColumnWriterState", ptr %11, i32 0, i32 7
  %13 = load i64, ptr %12, align 8, !tbaa !536
  %14 = icmp ugt i64 %13, 0
  br i1 %14, label %15, label %17

15:                                               ; preds = %2
  %16 = load ptr, ptr %4, align 8, !tbaa !141
  call void @_ZN6duckdb21PrimitiveColumnWriter9FlushPageERNS_26PrimitiveColumnWriterStateE(ptr noundef nonnull align 8 dereferenceable(65) %10, ptr noundef nonnull align 8 dereferenceable(208) %16)
  br label %17

17:                                               ; preds = %15, %2
  %18 = load ptr, ptr %4, align 8, !tbaa !141
  %19 = getelementptr inbounds nuw %"class.duckdb::PrimitiveColumnWriterState", ptr %18, i32 0, i32 7
  %20 = load i64, ptr %19, align 8, !tbaa !536
  %21 = load ptr, ptr %4, align 8, !tbaa !141
  %22 = getelementptr inbounds nuw %"class.duckdb::PrimitiveColumnWriterState", ptr %21, i32 0, i32 5
  %23 = call noundef i64 @_ZNKSt6vectorIN6duckdb20PageWriteInformationESaIS1_EE4sizeEv(ptr noundef nonnull align 8 dereferenceable(24) %22) #19
  %24 = icmp uge i64 %20, %23
  br i1 %24, label %25, label %32

25:                                               ; preds = %17
  %26 = load ptr, ptr %4, align 8, !tbaa !141
  %27 = getelementptr inbounds nuw %"class.duckdb::PrimitiveColumnWriterState", ptr %26, i32 0, i32 5
  %28 = call noundef i64 @_ZNKSt6vectorIN6duckdb20PageWriteInformationESaIS1_EE4sizeEv(ptr noundef nonnull align 8 dereferenceable(24) %27) #19
  %29 = add i64 %28, 1
  %30 = load ptr, ptr %4, align 8, !tbaa !141
  %31 = getelementptr inbounds nuw %"class.duckdb::PrimitiveColumnWriterState", ptr %30, i32 0, i32 7
  store i64 %29, ptr %31, align 8, !tbaa !536
  br label %85

32:                                               ; preds = %17
  call void @llvm.lifetime.start.p0(i64 8, ptr %5) #19
  %33 = load ptr, ptr %4, align 8, !tbaa !141
  %34 = getelementptr inbounds nuw %"class.duckdb::PrimitiveColumnWriterState", ptr %33, i32 0, i32 4
  %35 = load ptr, ptr %4, align 8, !tbaa !141
  %36 = getelementptr inbounds nuw %"class.duckdb::PrimitiveColumnWriterState", ptr %35, i32 0, i32 7
  %37 = load i64, ptr %36, align 8, !tbaa !536
  %38 = call noundef nonnull align 8 dereferenceable(32) ptr @_ZN6duckdb6vectorINS_15PageInformationELb1EEixEm(ptr noundef nonnull align 8 dereferenceable(24) %34, i64 noundef %37)
  store ptr %38, ptr %5, align 8, !tbaa !500
  call void @llvm.lifetime.start.p0(i64 8, ptr %6) #19
  %39 = load ptr, ptr %4, align 8, !tbaa !141
  %40 = getelementptr inbounds nuw %"class.duckdb::PrimitiveColumnWriterState", ptr %39, i32 0, i32 5
  %41 = load ptr, ptr %4, align 8, !tbaa !141
  %42 = getelementptr inbounds nuw %"class.duckdb::PrimitiveColumnWriterState", ptr %41, i32 0, i32 7
  %43 = load i64, ptr %42, align 8, !tbaa !536
  %44 = call noundef nonnull align 8 dereferenceable(544) ptr @_ZN6duckdb6vectorINS_20PageWriteInformationELb1EEixEm(ptr noundef nonnull align 8 dereferenceable(24) %40, i64 noundef %43)
  store ptr %44, ptr %6, align 8, !tbaa !528
  %45 = load ptr, ptr %4, align 8, !tbaa !141
  %46 = getelementptr inbounds nuw %"class.duckdb::PrimitiveColumnWriterState", ptr %45, i32 0, i32 7
  %47 = load i64, ptr %46, align 8, !tbaa !536
  %48 = add i64 %47, 1
  store i64 %48, ptr %46, align 8, !tbaa !536
  call void @llvm.lifetime.start.p0(i64 8, ptr %7) #19
  %49 = load ptr, ptr %6, align 8, !tbaa !528
  %50 = getelementptr inbounds nuw %"struct.duckdb::PageWriteInformation", ptr %49, i32 0, i32 1
  %51 = call noundef nonnull align 8 dereferenceable(48) ptr @_ZNK6duckdb10unique_ptrINS_12MemoryStreamESt14default_deleteIS1_ELb1EEdeEv(ptr noundef nonnull align 8 dereferenceable(8) %50)
  store ptr %51, ptr %7, align 8, !tbaa !316
  %52 = load ptr, ptr %7, align 8, !tbaa !316
  %53 = load ptr, ptr %4, align 8, !tbaa !141
  %54 = getelementptr inbounds nuw %"class.duckdb::ColumnWriterState", ptr %53, i32 0, i32 2
  %55 = getelementptr inbounds nuw %"class.duckdb::ColumnWriter", ptr %10, i32 0, i32 4
  %56 = load i64, ptr %55, align 8, !tbaa !54
  %57 = load ptr, ptr %5, align 8, !tbaa !500
  %58 = getelementptr inbounds nuw %"struct.duckdb::PageInformation", ptr %57, i32 0, i32 0
  %59 = load i64, ptr %58, align 8, !tbaa !503
  %60 = load ptr, ptr %5, align 8, !tbaa !500
  %61 = getelementptr inbounds nuw %"struct.duckdb::PageInformation", ptr %60, i32 0, i32 1
  %62 = load i64, ptr %61, align 8, !tbaa !501
  call void @_ZN6duckdb12optional_idxC2Ev(ptr noundef nonnull align 8 dereferenceable(8) %8)
  %63 = getelementptr inbounds nuw %"class.duckdb::optional_idx", ptr %8, i32 0, i32 0
  %64 = load i64, ptr %63, align 8
  call void @_ZN6duckdb21PrimitiveColumnWriter11WriteLevelsERNS_11WriteStreamERKNS_6vectorItLb0EEEmmmNS_12optional_idxE(ptr noundef nonnull align 8 dereferenceable(8) %52, ptr noundef nonnull align 8 dereferenceable(24) %54, i64 noundef %56, i64 noundef %59, i64 noundef %62, i64 %64)
  %65 = load ptr, ptr %7, align 8, !tbaa !316
  %66 = load ptr, ptr %4, align 8, !tbaa !141
  %67 = getelementptr inbounds nuw %"class.duckdb::ColumnWriterState", ptr %66, i32 0, i32 1
  %68 = getelementptr inbounds nuw %"class.duckdb::ColumnWriter", ptr %10, i32 0, i32 5
  %69 = load i64, ptr %68, align 8, !tbaa !67
  %70 = load ptr, ptr %5, align 8, !tbaa !500
  %71 = getelementptr inbounds nuw %"struct.duckdb::PageInformation", ptr %70, i32 0, i32 0
  %72 = load i64, ptr %71, align 8, !tbaa !503
  %73 = load ptr, ptr %5, align 8, !tbaa !500
  %74 = getelementptr inbounds nuw %"struct.duckdb::PageInformation", ptr %73, i32 0, i32 1
  %75 = load i64, ptr %74, align 8, !tbaa !501
  %76 = load ptr, ptr %4, align 8, !tbaa !141
  %77 = getelementptr inbounds nuw %"class.duckdb::ColumnWriterState", ptr %76, i32 0, i32 5
  %78 = load i64, ptr %77, align 8, !tbaa !537
  %79 = load ptr, ptr %4, align 8, !tbaa !141
  %80 = getelementptr inbounds nuw %"class.duckdb::ColumnWriterState", ptr %79, i32 0, i32 4
  %81 = load i64, ptr %80, align 8, !tbaa !538
  %82 = add i64 %78, %81
  call void @_ZN6duckdb12optional_idxC2Em(ptr noundef nonnull align 8 dereferenceable(8) %9, i64 noundef %82)
  %83 = getelementptr inbounds nuw %"class.duckdb::optional_idx", ptr %9, i32 0, i32 0
  %84 = load i64, ptr %83, align 8
  call void @_ZN6duckdb21PrimitiveColumnWriter11WriteLevelsERNS_11WriteStreamERKNS_6vectorItLb0EEEmmmNS_12optional_idxE(ptr noundef nonnull align 8 dereferenceable(8) %65, ptr noundef nonnull align 8 dereferenceable(24) %67, i64 noundef %69, i64 noundef %72, i64 noundef %75, i64 %84)
  call void @llvm.lifetime.end.p0(i64 8, ptr %7) #19
  call void @llvm.lifetime.end.p0(i64 8, ptr %6) #19
  call void @llvm.lifetime.end.p0(i64 8, ptr %5) #19
  br label %85

85:                                               ; preds = %32, %25
  ret void
}