; Function Attrs: mustprogress uwtable
define void @_ZN6duckdb21PrimitiveColumnWriter8NextPageERNS_26PrimitiveColumnWriterStateE(ptr noundef nonnull align 8 dereferenceable(65) %0, ptr noundef nonnull align 8 dereferenceable(208) %1) local_unnamed_addr #0 align 2 {
  %3 = alloca %"class.duckdb::optional_idx", align 8
  %4 = getelementptr inbounds nuw i8, ptr %1, i64 192
  %5 = load i64, ptr %4, align 8, !tbaa !452
  %.not = icmp eq i64 %5, 0
  br i1 %.not, label %7, label %6

6:                                                ; preds = %2
  tail call void @_ZN6duckdb21PrimitiveColumnWriter9FlushPageERNS_26PrimitiveColumnWriterStateE(ptr noundef nonnull align 8 dereferenceable(65) %0, ptr noundef nonnull align 8 dereferenceable(208) %1)
  %.pre = load i64, ptr %4, align 8, !tbaa !452
  br label %7

7:                                                ; preds = %6, %2
  %8 = phi i64 [ %.pre, %6 ], [ 0, %2 ]
  %9 = getelementptr inbounds nuw i8, ptr %1, i64 160
  %10 = getelementptr inbounds nuw i8, ptr %1, i64 168
  %11 = load ptr, ptr %10, align 8, !tbaa !306
  %12 = load ptr, ptr %9, align 8, !tbaa !453
  %13 = ptrtoint ptr %11 to i64
  %14 = ptrtoint ptr %12 to i64
  %15 = sub i64 %13, %14
  %16 = sdiv exact i64 %15, 544
  %.not23 = icmp ult i64 %8, %16
  br i1 %.not23, label %19, label %17

17:                                               ; preds = %7
  %18 = add nsw i64 %16, 1
  store i64 %18, ptr %4, align 8, !tbaa !452
  br label %45

19:                                               ; preds = %7
  %20 = getelementptr inbounds nuw i8, ptr %1, i64 136
  %21 = tail call noundef nonnull align 8 dereferenceable(32) ptr @_ZN6duckdb6vectorINS_15PageInformationELb1EEixEm(ptr noundef nonnull align 8 dereferenceable(24) %20, i64 noundef %8)
  %22 = load i64, ptr %4, align 8, !tbaa !452
  %23 = tail call noundef nonnull align 8 dereferenceable(544) ptr @_ZN6duckdb6vectorINS_20PageWriteInformationELb1EEixEm(ptr noundef nonnull align 8 dereferenceable(24) %9, i64 noundef %22)
  %24 = load i64, ptr %4, align 8, !tbaa !452
  %25 = add i64 %24, 1
  store i64 %25, ptr %4, align 8, !tbaa !452
  %26 = getelementptr inbounds nuw i8, ptr %23, i64 464
  %27 = tail call noundef nonnull align 8 dereferenceable(48) ptr @_ZNK6duckdb10unique_ptrINS_12MemoryStreamESt14default_deleteIS1_ELb1EEdeEv(ptr noundef nonnull align 8 dereferenceable(8) %26)
  %28 = getelementptr inbounds nuw i8, ptr %1, i64 32
  %29 = getelementptr inbounds nuw i8, ptr %0, i64 48
  %30 = load i64, ptr %29, align 8, !tbaa !47
  %31 = load i64, ptr %21, align 8, !tbaa !428
  %32 = getelementptr inbounds nuw i8, ptr %21, i64 8
  %33 = load i64, ptr %32, align 8, !tbaa !426
  tail call void @_ZN6duckdb21PrimitiveColumnWriter11WriteLevelsERNS_11WriteStreamERKNS_6vectorItLb0EEEmmmNS_12optional_idxE(ptr noundef nonnull align 8 dereferenceable(8) %27, ptr noundef nonnull align 8 dereferenceable(24) %28, i64 noundef %30, i64 noundef %31, i64 noundef %33, i64 -1)
  %34 = getelementptr inbounds nuw i8, ptr %1, i64 8
  %35 = getelementptr inbounds nuw i8, ptr %0, i64 56
  %36 = load i64, ptr %35, align 8, !tbaa !76
  %37 = load i64, ptr %21, align 8, !tbaa !428
  %38 = load i64, ptr %32, align 8, !tbaa !426
  %39 = getelementptr inbounds nuw i8, ptr %1, i64 104
  %40 = load i64, ptr %39, align 8, !tbaa !454
  %41 = getelementptr inbounds nuw i8, ptr %1, i64 96
  %42 = load i64, ptr %41, align 8, !tbaa !455
  %43 = add i64 %42, %40
  call void @_ZN6duckdb12optional_idxC2Em(ptr noundef nonnull align 8 dereferenceable(8) %3, i64 noundef %43)
  %44 = load i64, ptr %3, align 8
  call void @_ZN6duckdb21PrimitiveColumnWriter11WriteLevelsERNS_11WriteStreamERKNS_6vectorItLb0EEEmmmNS_12optional_idxE(ptr noundef nonnull align 8 dereferenceable(8) %27, ptr noundef nonnull align 8 dereferenceable(24) %34, i64 noundef %36, i64 noundef %37, i64 noundef %38, i64 %44)
  br label %45

45:                                               ; preds = %19, %17
  ret void
}